target datalayout = "e-m:e-p270:32:32-p271:32:32-p272:64:64-i64:64-i128:128-f80:128-n8:16:32:64-S128"
target triple = "x86_64-unknown-linux-gnu"

%"struct.arrow::compute::LightContext" = type { i64, ptr }

; Function Attrs: mustprogress nounwind uwtable
define linkonce_odr noundef i64 @_ZN5arrow8bit_util7CeilDivEll(i64 noundef %value, i64 noundef %divisor) #1 comdat {
entry:
  %value.addr = alloca i64, align 8
  %divisor.addr = alloca i64, align 8
  store i64 %value, ptr %value.addr, align 8
  store i64 %divisor, ptr %divisor.addr, align 8
  %0 = load i64, ptr %value.addr, align 8
  %cmp = icmp eq i64 %0, 0
  br i1 %cmp, label %cond.true, label %cond.false

cond.true:                                        ; preds = %entry
  br label %cond.end

cond.false:                                       ; preds = %entry
  %1 = load i64, ptr %value.addr, align 8
  %sub = sub nsw i64 %1, 1
  %2 = load i64, ptr %divisor.addr, align 8
  %div = sdiv i64 %sub, %2
  %add = add nsw i64 1, %div
  br label %cond.end

cond.end:                                         ; preds = %cond.false, %cond.true
  %cond = phi i64 [ 0, %cond.true ], [ %add, %cond.false ]
  ret i64 %cond
}

; Function Attrs: mustprogress nounwind uwtable
define linkonce_odr noundef zeroext i1 @_ZNK5arrow7compute12LightContext8has_avx2Ev(ptr noundef nonnull align 8 dereferenceable(16) %this) #1 comdat align 2 {
entry:
  %this.addr = alloca ptr, align 8
  store ptr %this, ptr %this.addr, align 8
  %this1 = load ptr, ptr %this.addr, align 8
  %hardware_flags = getelementptr inbounds %"struct.arrow::compute::LightContext", ptr %this1, i32 0, i32 0
  %0 = load i64, ptr %hardware_flags, align 8
  %and = and i64 %0, 32
  %cmp = icmp sgt i64 %and, 0
  ret i1 %cmp
}

; Function Attrs: mustprogress uwtable
define void @_ZN5arrow7compute10KeyCompare14AndByteVectorsEPNS0_12LightContextEjPhPKh(ptr noundef %ctx, i32 noundef %num_elements, ptr noundef %bytevector_A, ptr noundef %bytevector_B) #0 align 2 {
entry:
  %ctx.addr = alloca ptr, align 8
  %num_elements.addr = alloca i32, align 4
  %bytevector_A.addr = alloca ptr, align 8
  %bytevector_B.addr = alloca ptr, align 8
  %num_processed = alloca i32, align 4
  %i = alloca i32, align 4
  %a = alloca ptr, align 8
  %b = alloca ptr, align 8
  store ptr %ctx, ptr %ctx.addr, align 8
  store i32 %num_elements, ptr %num_elements.addr, align 4
  store ptr %bytevector_A, ptr %bytevector_A.addr, align 8
  store ptr %bytevector_B, ptr %bytevector_B.addr, align 8
  store i32 0, ptr %num_processed, align 4
  %0 = load ptr, ptr %ctx.addr, align 8
  %call = call noundef zeroext i1 @_ZNK5arrow7compute12LightContext8has_avx2Ev(ptr noundef nonnull align 8 dereferenceable(16) %0)
  br i1 %call, label %if.then, label %if.end

if.then:                                          ; preds = %entry
  %1 = load i32, ptr %num_elements.addr, align 4
  %2 = load ptr, ptr %bytevector_A.addr, align 8
  %3 = load ptr, ptr %bytevector_B.addr, align 8
  %call1 = call noundef i32 @_ZN5arrow7compute10KeyCompare19AndByteVectors_avx2EjPhPKh(i32 noundef %1, ptr noundef %2, ptr noundef %3)
  store i32 %call1, ptr %num_processed, align 4
  br label %if.end

if.end:                                           ; preds = %if.then, %entry
  %4 = load i32, ptr %num_processed, align 4
  %div = udiv i32 %4, 8
  store i32 %div, ptr %i, align 4
  br label %for.cond

for.cond:                                         ; preds = %for.inc, %if.end
  %5 = load i32, ptr %i, align 4
  %conv = zext i32 %5 to i64
  %6 = load i32, ptr %num_elements.addr, align 4
  %conv2 = zext i32 %6 to i64
  %call3 = call noundef i64 @_ZN5arrow8bit_util7CeilDivEll(i64 noundef %conv2, i64 noundef 8)
  %cmp = icmp slt i64 %conv, %call3
  br i1 %cmp, label %for.body, label %for.end

for.body:                                         ; preds = %for.cond
  %7 = load ptr, ptr %bytevector_A.addr, align 8
  store ptr %7, ptr %a, align 8
  %8 = load ptr, ptr %bytevector_B.addr, align 8
  store ptr %8, ptr %b, align 8
  %9 = load ptr, ptr %b, align 8
  %10 = load i32, ptr %i, align 4
  %idxprom = zext i32 %10 to i64
  %arrayidx = getelementptr inbounds i64, ptr %9, i64 %idxprom
  %11 = load i64, ptr %arrayidx, align 8
  %12 = load ptr, ptr %a, align 8
  %13 = load i32, ptr %i, align 4
  %idxprom4 = zext i32 %13 to i64
  %arrayidx5 = getelementptr inbounds i64, ptr %12, i64 %idxprom4
  %14 = load i64, ptr %arrayidx5, align 8
  %and = and i64 %14, %11
  store i64 %and, ptr %arrayidx5, align 8
  br label %for.inc

for.inc:                                          ; preds = %for.body
  %15 = load i32, ptr %i, align 4
  %inc = add i32 %15, 1
  store i32 %inc, ptr %i, align 4
  br label %for.cond, !llvm.loop !4

for.end:                                          ; preds = %for.cond
  ret void
}