; Function Attrs: mustprogress uwtable
define void @_ZN5arrow7compute10KeyCompare14AndByteVectorsEPNS0_12LightContextEjPhPKh(ptr noundef readonly captures(none) %ctx, i32 noundef %num_elements, ptr noundef %bytevector_A, ptr noundef %bytevector_B) local_unnamed_addr #0 align 2 {
entry:
  %0 = load i64, ptr %ctx, align 8
  %and.i = and i64 %0, 32
  %cmp.i.not = icmp eq i64 %and.i, 0
  br i1 %cmp.i.not, label %if.end, label %if.then

if.then:                                          ; preds = %entry
  %call1 = tail call noundef i32 @_ZN5arrow7compute10KeyCompare19AndByteVectors_avx2EjPhPKh(i32 noundef %num_elements, ptr noundef %bytevector_A, ptr noundef %bytevector_B)
  %1 = lshr i32 %call1, 3
  br label %if.end

if.end:                                           ; preds = %if.then, %entry
  %num_processed.0 = phi i32 [ %1, %if.then ], [ 0, %entry ]
  %sub.i = add i32 %num_elements, -1
  %div.i101112 = lshr i32 %sub.i, 3
  %cmp.i7 = icmp eq i32 %num_elements, 0
  %cmp.not14 = icmp samesign ult i32 %div.i101112, %num_processed.0
  %or.cond15 = select i1 %cmp.i7, i1 true, i1 %cmp.not14
  br i1 %or.cond15, label %for.end, label %for.body.preheader

for.body.preheader:                               ; preds = %if.end
  %2 = zext nneg i32 %num_processed.0 to i64
  %3 = add nuw nsw i32 %div.i101112, 1
  %wide.trip.count = zext nneg i32 %3 to i64
  br label %for.body

for.body:                                         ; preds = %for.body.preheader, %for.body
  %indvars.iv = phi i64 [ %2, %for.body.preheader ], [ %indvars.iv.next, %for.body ]
  %arrayidx = getelementptr inbounds nuw i64, ptr %bytevector_B, i64 %indvars.iv
  %4 = load i64, ptr %arrayidx, align 8
  %arrayidx5 = getelementptr inbounds nuw i64, ptr %bytevector_A, i64 %indvars.iv
  %5 = load i64, ptr %arrayidx5, align 8
  %and = and i64 %5, %4
  store i64 %and, ptr %arrayidx5, align 8
  %indvars.iv.next = add nuw nsw i64 %indvars.iv, 1
  %exitcond = icmp eq i64 %indvars.iv.next, %wide.trip.count
  br i1 %exitcond, label %for.end, label %for.body, !llvm.loop !4

for.end:                                          ; preds = %for.body, %if.end
  ret void
}